target datalayout = "e-m:e-p270:32:32-p271:32:32-p272:64:64-i64:64-i128:128-f80:128-n8:16:32:64-S128"
target triple = "x86_64-pc-linux-gnu"

%struct.Aig_Obj_t_ = type { %union.anon, ptr, ptr, i64, i32, i32, %union.anon.0 }
%union.anon = type { ptr }
%union.anon.0 = type { ptr }
%struct.Aig_Man_t_ = type { ptr, ptr, ptr, ptr, ptr, ptr, ptr, %struct.Aig_Obj_t_, i32, i32, i32, i32, i32, i32, [7 x i32], i32, ptr, i32, ptr, i32, ptr, i32, i32, i32, ptr, i32, i32, i32, i32, i32, ptr, ptr, i32, ptr, ptr, i32, ptr, ptr, i32, i32, i32, ptr, ptr, ptr, ptr, ptr, ptr, ptr, ptr, ptr, ptr, ptr, ptr, ptr, ptr, i32, ptr, ptr, ptr, ptr, i32, i64, i64, i64, ptr, ptr }
%struct.Vec_Ptr_t_ = type { i32, i32, ptr }
%struct.Vec_Int_t_ = type { i32, i32, ptr }
%struct.DdManager = type { %struct.DdNode, ptr, ptr, ptr, ptr, ptr, ptr, ptr, i32, i32, double, double, double, i32, i32, i32, i32, i32, i32, ptr, ptr, %struct.DdSubtable, i32, i32, i32, i32, i32, i32, i32, double, i32, i32, i32, ptr, i64, double, i32, ptr, ptr, ptr, ptr, ptr, ptr, ptr, i32, ptr, ptr, ptr, ptr, ptr, ptr, i32, i32, i32, double, i32, i32, i32, i32, double, double, i32, i32, i32, i32, i32, i32, i32, i32, i32, ptr, ptr, i32, i32, i32, i32, i32, i32, ptr, ptr, ptr, ptr, ptr, ptr, ptr, ptr, i32, i64, i64, i64, i32, i64, i64, double, double, double, double, double, double, i32, ptr, ptr, i64 }
%struct.DdNode = type { i32, i32, ptr, %union.anon.1, i64 }
%union.anon.1 = type { %struct.DdChildren }
%struct.DdChildren = type { ptr, ptr }
%struct.DdSubtable = type { ptr, i32, i32, i32, i32, i32, i32, i32, i32, i32, i32, i32 }

; Function Attrs: inlinehint nounwind uwtable
define internal i32 @Vec_IntEntry(ptr noundef %0, i32 noundef %1) #3 {
  %3 = alloca ptr, align 8
  %4 = alloca i32, align 4
  store ptr %0, ptr %3, align 8, !tbaa !10
  store i32 %1, ptr %4, align 4, !tbaa !13
  %5 = load ptr, ptr %3, align 8, !tbaa !10
  %6 = getelementptr inbounds nuw %struct.Vec_Int_t_, ptr %5, i32 0, i32 2
  %7 = load ptr, ptr %6, align 8, !tbaa !63
  %8 = load i32, ptr %4, align 4, !tbaa !13
  %9 = sext i32 %8 to i64
  %10 = getelementptr inbounds i32, ptr %7, i64 %9
  %11 = load i32, ptr %10, align 4, !tbaa !13
  ret i32 %11
}

; Function Attrs: inlinehint nounwind uwtable
define internal i32 @Aig_ObjId(ptr noundef %0) #3 {
  %2 = alloca ptr, align 8
  store ptr %0, ptr %2, align 8, !tbaa !27
  %3 = load ptr, ptr %2, align 8, !tbaa !27
  %4 = getelementptr inbounds nuw %struct.Aig_Obj_t_, ptr %3, i32 0, i32 5
  %5 = load i32, ptr %4, align 4, !tbaa !64
  ret i32 %5
}

; Function Attrs: inlinehint nounwind uwtable
define internal i32 @Saig_ManPiNum(ptr noundef %0) #3 {
  %2 = alloca ptr, align 8
  store ptr %0, ptr %2, align 8, !tbaa !8
  %3 = load ptr, ptr %2, align 8, !tbaa !8
  %4 = getelementptr inbounds nuw %struct.Aig_Man_t_, ptr %3, i32 0, i32 9
  %5 = load i32, ptr %4, align 4, !tbaa !47
  ret i32 %5
}

; Function Attrs: inlinehint nounwind uwtable
define internal ptr @Vec_PtrEntry(ptr noundef %0, i32 noundef %1) #3 {
  %3 = alloca ptr, align 8
  %4 = alloca i32, align 4
  store ptr %0, ptr %3, align 8, !tbaa !31
  store i32 %1, ptr %4, align 4, !tbaa !13
  %5 = load ptr, ptr %3, align 8, !tbaa !31
  %6 = getelementptr inbounds nuw %struct.Vec_Ptr_t_, ptr %5, i32 0, i32 2
  %7 = load ptr, ptr %6, align 8, !tbaa !42
  %8 = load i32, ptr %4, align 4, !tbaa !13
  %9 = sext i32 %8 to i64
  %10 = getelementptr inbounds ptr, ptr %7, i64 %9
  %11 = load ptr, ptr %10, align 8, !tbaa !43
  ret ptr %11
}

; Function Attrs: inlinehint nounwind uwtable
define internal i32 @Saig_ManPoNum(ptr noundef %0) #3 {
  %2 = alloca ptr, align 8
  store ptr %0, ptr %2, align 8, !tbaa !8
  %3 = load ptr, ptr %2, align 8, !tbaa !8
  %4 = getelementptr inbounds nuw %struct.Aig_Man_t_, ptr %3, i32 0, i32 10
  %5 = load i32, ptr %4, align 8, !tbaa !44
  ret i32 %5
}

; Function Attrs: inlinehint nounwind uwtable
define internal i32 @Llb_ObjBddVar(ptr noundef %0, ptr noundef %1) #3 {
  %3 = alloca ptr, align 8
  %4 = alloca ptr, align 8
  store ptr %0, ptr %3, align 8, !tbaa !10
  store ptr %1, ptr %4, align 8, !tbaa !27
  %5 = load ptr, ptr %3, align 8, !tbaa !10
  %6 = load ptr, ptr %4, align 8, !tbaa !27
  %7 = call i32 @Aig_ObjId(ptr noundef %6)
  %8 = call i32 @Vec_IntEntry(ptr noundef %5, i32 noundef %7)
  ret i32 %8
}

; Function Attrs: inlinehint nounwind uwtable
define internal ptr @Saig_ManLo(ptr noundef %0, i32 noundef %1) #3 {
  %3 = alloca ptr, align 8
  %4 = alloca i32, align 4
  store ptr %0, ptr %3, align 8, !tbaa !8
  store i32 %1, ptr %4, align 4, !tbaa !13
  %5 = load ptr, ptr %3, align 8, !tbaa !8
  %6 = getelementptr inbounds nuw %struct.Aig_Man_t_, ptr %5, i32 0, i32 2
  %7 = load ptr, ptr %6, align 8, !tbaa !15
  %8 = load ptr, ptr %3, align 8, !tbaa !8
  %9 = call i32 @Saig_ManPiNum(ptr noundef %8)
  %10 = load i32, ptr %4, align 4, !tbaa !13
  %11 = add nsw i32 %9, %10
  %12 = call ptr @Vec_PtrEntry(ptr noundef %7, i32 noundef %11)
  ret ptr %12
}

; Function Attrs: inlinehint nounwind uwtable
define internal ptr @Saig_ManLi(ptr noundef %0, i32 noundef %1) #3 {
  %3 = alloca ptr, align 8
  %4 = alloca i32, align 4
  store ptr %0, ptr %3, align 8, !tbaa !8
  store i32 %1, ptr %4, align 4, !tbaa !13
  %5 = load ptr, ptr %3, align 8, !tbaa !8
  %6 = getelementptr inbounds nuw %struct.Aig_Man_t_, ptr %5, i32 0, i32 3
  %7 = load ptr, ptr %6, align 8, !tbaa !30
  %8 = load ptr, ptr %3, align 8, !tbaa !8
  %9 = call i32 @Saig_ManPoNum(ptr noundef %8)
  %10 = load i32, ptr %4, align 4, !tbaa !13
  %11 = add nsw i32 %9, %10
  %12 = call ptr @Vec_PtrEntry(ptr noundef %7, i32 noundef %11)
  ret ptr %12
}

; Function Attrs: inlinehint nounwind uwtable
define internal i32 @Saig_ManRegNum(ptr noundef %0) #3 {
  %2 = alloca ptr, align 8
  store ptr %0, ptr %2, align 8, !tbaa !8
  %3 = load ptr, ptr %2, align 8, !tbaa !8
  %4 = getelementptr inbounds nuw %struct.Aig_Man_t_, ptr %3, i32 0, i32 8
  %5 = load i32, ptr %4, align 8, !tbaa !57
  ret i32 %5
}

; Function Attrs: nounwind uwtable
define ptr @Llb_Nonlin4ComputeCube(ptr noundef %0, ptr noundef %1, ptr noundef %2, ptr noundef %3, i32 noundef %4) #0 {
  %6 = alloca ptr, align 8
  %7 = alloca ptr, align 8
  %8 = alloca ptr, align 8
  %9 = alloca ptr, align 8
  %10 = alloca i32, align 4
  %11 = alloca ptr, align 8
  %12 = alloca ptr, align 8
  %13 = alloca ptr, align 8
  %14 = alloca ptr, align 8
  %15 = alloca ptr, align 8
  %16 = alloca ptr, align 8
  %17 = alloca i32, align 4
  %18 = alloca i64, align 8
  store ptr %0, ptr %6, align 8, !tbaa !3
  store ptr %1, ptr %7, align 8, !tbaa !8
  store ptr %2, ptr %8, align 8, !tbaa !10
  store ptr %3, ptr %9, align 8, !tbaa !95
  store i32 %4, ptr %10, align 4, !tbaa !13
  call void @llvm.lifetime.start.p0(i64 8, ptr %11) #11
  call void @llvm.lifetime.start.p0(i64 8, ptr %12) #11
  call void @llvm.lifetime.start.p0(i64 8, ptr %13) #11
  call void @llvm.lifetime.start.p0(i64 8, ptr %14) #11
  call void @llvm.lifetime.start.p0(i64 8, ptr %15) #11
  call void @llvm.lifetime.start.p0(i64 8, ptr %16) #11
  call void @llvm.lifetime.start.p0(i64 4, ptr %17) #11
  call void @llvm.lifetime.start.p0(i64 8, ptr %18) #11
  %19 = load ptr, ptr %6, align 8, !tbaa !3
  %20 = getelementptr inbounds nuw %struct.DdManager, ptr %19, i32 0, i32 102
  %21 = load i64, ptr %20, align 8, !tbaa !81
  store i64 %21, ptr %18, align 8, !tbaa !93
  %22 = load ptr, ptr %6, align 8, !tbaa !3
  %23 = getelementptr inbounds nuw %struct.DdManager, ptr %22, i32 0, i32 102
  store i64 0, ptr %23, align 8, !tbaa !81
  %24 = load ptr, ptr %6, align 8, !tbaa !3
  %25 = call ptr @Cudd_ReadOne(ptr noundef %24)
  store ptr %25, ptr %14, align 8, !tbaa !32
  %26 = load ptr, ptr %14, align 8, !tbaa !32
  call void @Cudd_Ref(ptr noundef %26)
  store i32 0, ptr %17, align 4, !tbaa !13
  br label %27

27:                                               ; preds = %77, %5
  %28 = load i32, ptr %17, align 4, !tbaa !13
  %29 = load ptr, ptr %7, align 8, !tbaa !8
  %30 = call i32 @Saig_ManRegNum(ptr noundef %29)
  %31 = icmp slt i32 %28, %30
  br i1 %31, label %32, label %40

32:                                               ; preds = %27
  %33 = load ptr, ptr %7, align 8, !tbaa !8
  %34 = load i32, ptr %17, align 4, !tbaa !13
  %35 = call ptr @Saig_ManLi(ptr noundef %33, i32 noundef %34)
  store ptr %35, ptr %12, align 8, !tbaa !27
  br i1 true, label %36, label %40

36:                                               ; preds = %32
  %37 = load ptr, ptr %7, align 8, !tbaa !8
  %38 = load i32, ptr %17, align 4, !tbaa !13
  %39 = call ptr @Saig_ManLo(ptr noundef %37, i32 noundef %38)
  store ptr %39, ptr %11, align 8, !tbaa !27
  br label %40

40:                                               ; preds = %36, %32, %27
  %41 = phi i1 [ false, %32 ], [ false, %27 ], [ true, %36 ]
  br i1 %41, label %42, label %80

42:                                               ; preds = %40
  %43 = load i32, ptr %10, align 4, !tbaa !13
  %44 = icmp ne i32 %43, 0
  br i1 %44, label %45, label %49

45:                                               ; preds = %42
  %46 = load ptr, ptr %11, align 8, !tbaa !27
  store ptr %46, ptr %13, align 8, !tbaa !27
  %47 = load ptr, ptr %12, align 8, !tbaa !27
  store ptr %47, ptr %11, align 8, !tbaa !27
  %48 = load ptr, ptr %13, align 8, !tbaa !27
  store ptr %48, ptr %12, align 8, !tbaa !27
  br label %49

49:                                               ; preds = %45, %42
  %50 = load ptr, ptr %6, align 8, !tbaa !3
  %51 = load ptr, ptr %8, align 8, !tbaa !10
  %52 = load ptr, ptr %12, align 8, !tbaa !27
  %53 = call i32 @Llb_ObjBddVar(ptr noundef %51, ptr noundef %52)
  %54 = call ptr @Cudd_bddIthVar(ptr noundef %50, i32 noundef %53)
  store ptr %54, ptr %15, align 8, !tbaa !32
  %55 = load ptr, ptr %9, align 8, !tbaa !95
  %56 = load ptr, ptr %8, align 8, !tbaa !10
  %57 = load ptr, ptr %11, align 8, !tbaa !27
  %58 = call i32 @Llb_ObjBddVar(ptr noundef %56, ptr noundef %57)
  %59 = sext i32 %58 to i64
  %60 = getelementptr inbounds i8, ptr %55, i64 %59
  %61 = load i8, ptr %60, align 1, !tbaa !12
  %62 = sext i8 %61 to i32
  %63 = icmp ne i32 %62, 1
  br i1 %63, label %64, label %69

64:                                               ; preds = %49
  %65 = load ptr, ptr %15, align 8, !tbaa !32
  %66 = ptrtoint ptr %65 to i64
  %67 = xor i64 %66, 1
  %68 = inttoptr i64 %67 to ptr
  store ptr %68, ptr %15, align 8, !tbaa !32
  br label %69

69:                                               ; preds = %64, %49
  %70 = load ptr, ptr %6, align 8, !tbaa !3
  %71 = load ptr, ptr %14, align 8, !tbaa !32
  store ptr %71, ptr %16, align 8, !tbaa !32
  %72 = load ptr, ptr %15, align 8, !tbaa !32
  %73 = call ptr @Cudd_bddAnd(ptr noundef %70, ptr noundef %71, ptr noundef %72)
  store ptr %73, ptr %14, align 8, !tbaa !32
  %74 = load ptr, ptr %14, align 8, !tbaa !32
  call void @Cudd_Ref(ptr noundef %74)
  %75 = load ptr, ptr %6, align 8, !tbaa !3
  %76 = load ptr, ptr %16, align 8, !tbaa !32
  call void @Cudd_RecursiveDeref(ptr noundef %75, ptr noundef %76)
  br label %77

77:                                               ; preds = %69
  %78 = load i32, ptr %17, align 4, !tbaa !13
  %79 = add nsw i32 %78, 1
  store i32 %79, ptr %17, align 4, !tbaa !13
  br label %27, !llvm.loop !96

80:                                               ; preds = %40
  %81 = load ptr, ptr %14, align 8, !tbaa !32
  call void @Cudd_Deref(ptr noundef %81)
  %82 = load i64, ptr %18, align 8, !tbaa !93
  %83 = load ptr, ptr %6, align 8, !tbaa !3
  %84 = getelementptr inbounds nuw %struct.DdManager, ptr %83, i32 0, i32 102
  store i64 %82, ptr %84, align 8, !tbaa !81
  %85 = load ptr, ptr %14, align 8, !tbaa !32
  call void @llvm.lifetime.end.p0(i64 8, ptr %18) #11
  call void @llvm.lifetime.end.p0(i64 4, ptr %17) #11
  call void @llvm.lifetime.end.p0(i64 8, ptr %16) #11
  call void @llvm.lifetime.end.p0(i64 8, ptr %15) #11
  call void @llvm.lifetime.end.p0(i64 8, ptr %14) #11
  call void @llvm.lifetime.end.p0(i64 8, ptr %13) #11
  call void @llvm.lifetime.end.p0(i64 8, ptr %12) #11
  call void @llvm.lifetime.end.p0(i64 8, ptr %11) #11
  ret ptr %85
}