; Function Attrs: nounwind uwtable
define noundef ptr @Llb_Nonlin4ComputeCube(ptr noundef %0, ptr noundef readonly captures(none) %1, ptr noundef readonly captures(none) %2, ptr noundef readonly captures(none) %3, i32 noundef %4) local_unnamed_addr #0 {
  %6 = getelementptr inbounds nuw i8, ptr %0, i64 752
  %7 = load i64, ptr %6, align 8, !tbaa !70
  store i64 0, ptr %6, align 8, !tbaa !70
  %8 = tail call ptr @Cudd_ReadOne(ptr noundef %0) #18
  tail call void @Cudd_Ref(ptr noundef %8) #18
  %9 = getelementptr i8, ptr %1, i64 104
  %.val3843 = load i32, ptr %9, align 8, !tbaa !45
  %10 = icmp sgt i32 %.val3843, 0
  br i1 %10, label %.lr.ph, label %.critedge

.lr.ph:                                           ; preds = %5
  %11 = getelementptr i8, ptr %1, i64 24
  %12 = getelementptr i8, ptr %1, i64 112
  %13 = getelementptr i8, ptr %1, i64 16
  %14 = getelementptr i8, ptr %1, i64 108
  %.not = icmp eq i32 %4, 0
  %15 = getelementptr i8, ptr %2, i64 8
  br i1 %.not, label %.lr.ph.split.us, label %.lr.ph.split

.lr.ph.split.us:                                  ; preds = %.lr.ph, %.lr.ph.split.us
  %.03145.us = phi i32 [ %42, %.lr.ph.split.us ], [ 0, %.lr.ph ]
  %.03444.us = phi ptr [ %41, %.lr.ph.split.us ], [ %8, %.lr.ph ]
  %.val39.us = load ptr, ptr %11, align 8, !tbaa !33
  %.val40.us = load i32, ptr %12, align 8, !tbaa !34
  %16 = getelementptr i8, ptr %.val39.us, i64 8
  %.val39.val.us = load ptr, ptr %16, align 8, !tbaa !25
  %17 = add nsw i32 %.val40.us, %.03145.us
  %18 = sext i32 %17 to i64
  %19 = getelementptr inbounds ptr, ptr %.val39.val.us, i64 %18
  %20 = load ptr, ptr %19, align 8, !tbaa !26
  %.val41.us = load ptr, ptr %13, align 8, !tbaa !22
  %.val42.us = load i32, ptr %14, align 4, !tbaa !41
  %21 = getelementptr i8, ptr %.val41.us, i64 8
  %.val41.val.us = load ptr, ptr %21, align 8, !tbaa !25
  %22 = add nsw i32 %.val42.us, %.03145.us
  %23 = sext i32 %22 to i64
  %24 = getelementptr inbounds ptr, ptr %.val41.val.us, i64 %23
  %25 = load ptr, ptr %24, align 8, !tbaa !26
  %.val37.us = load ptr, ptr %15, align 8, !tbaa !27
  %26 = getelementptr i8, ptr %20, i64 36
  %spec.select.val.us = load i32, ptr %26, align 4, !tbaa !29
  %27 = sext i32 %spec.select.val.us to i64
  %28 = getelementptr inbounds i32, ptr %.val37.us, i64 %27
  %29 = load i32, ptr %28, align 4, !tbaa !30
  %30 = tail call ptr @Cudd_bddIthVar(ptr noundef %0, i32 noundef %29) #18
  %.val.us = load ptr, ptr %15, align 8, !tbaa !27
  %31 = getelementptr i8, ptr %25, i64 36
  %spec.select36.val.us = load i32, ptr %31, align 4, !tbaa !29
  %32 = sext i32 %spec.select36.val.us to i64
  %33 = getelementptr inbounds i32, ptr %.val.us, i64 %32
  %34 = load i32, ptr %33, align 4, !tbaa !30
  %35 = sext i32 %34 to i64
  %36 = getelementptr inbounds i8, ptr %3, i64 %35
  %37 = load i8, ptr %36, align 1, !tbaa !21
  %.not35.us = icmp eq i8 %37, 1
  %38 = ptrtoint ptr %30 to i64
  %39 = xor i64 %38, 1
  %40 = inttoptr i64 %39 to ptr
  %.033.us = select i1 %.not35.us, ptr %30, ptr %40
  %41 = tail call ptr @Cudd_bddAnd(ptr noundef %0, ptr noundef %.03444.us, ptr noundef %.033.us) #18
  tail call void @Cudd_Ref(ptr noundef %41) #18
  tail call void @Cudd_RecursiveDeref(ptr noundef %0, ptr noundef %.03444.us) #18
  %42 = add nuw nsw i32 %.03145.us, 1
  %.val38.us = load i32, ptr %9, align 8, !tbaa !45
  %43 = icmp slt i32 %42, %.val38.us
  br i1 %43, label %.lr.ph.split.us, label %.critedge, !llvm.loop !84

.lr.ph.split:                                     ; preds = %.lr.ph, %.lr.ph.split
  %.03145 = phi i32 [ %70, %.lr.ph.split ], [ 0, %.lr.ph ]
  %.03444 = phi ptr [ %69, %.lr.ph.split ], [ %8, %.lr.ph ]
  %.val39 = load ptr, ptr %11, align 8, !tbaa !33
  %.val40 = load i32, ptr %12, align 8, !tbaa !34
  %44 = getelementptr i8, ptr %.val39, i64 8
  %.val39.val = load ptr, ptr %44, align 8, !tbaa !25
  %45 = add nsw i32 %.val40, %.03145
  %46 = sext i32 %45 to i64
  %47 = getelementptr inbounds ptr, ptr %.val39.val, i64 %46
  %48 = load ptr, ptr %47, align 8, !tbaa !26
  %.val41 = load ptr, ptr %13, align 8, !tbaa !22
  %.val42 = load i32, ptr %14, align 4, !tbaa !41
  %49 = getelementptr i8, ptr %.val41, i64 8
  %.val41.val = load ptr, ptr %49, align 8, !tbaa !25
  %50 = add nsw i32 %.val42, %.03145
  %51 = sext i32 %50 to i64
  %52 = getelementptr inbounds ptr, ptr %.val41.val, i64 %51
  %53 = load ptr, ptr %52, align 8, !tbaa !26
  %.val37 = load ptr, ptr %15, align 8, !tbaa !27
  %54 = getelementptr i8, ptr %53, i64 36
  %spec.select.val = load i32, ptr %54, align 4, !tbaa !29
  %55 = sext i32 %spec.select.val to i64
  %56 = getelementptr inbounds i32, ptr %.val37, i64 %55
  %57 = load i32, ptr %56, align 4, !tbaa !30
  %58 = tail call ptr @Cudd_bddIthVar(ptr noundef %0, i32 noundef %57) #18
  %.val = load ptr, ptr %15, align 8, !tbaa !27
  %59 = getelementptr i8, ptr %48, i64 36
  %spec.select36.val = load i32, ptr %59, align 4, !tbaa !29
  %60 = sext i32 %spec.select36.val to i64
  %61 = getelementptr inbounds i32, ptr %.val, i64 %60
  %62 = load i32, ptr %61, align 4, !tbaa !30
  %63 = sext i32 %62 to i64
  %64 = getelementptr inbounds i8, ptr %3, i64 %63
  %65 = load i8, ptr %64, align 1, !tbaa !21
  %.not35 = icmp eq i8 %65, 1
  %66 = ptrtoint ptr %58 to i64
  %67 = xor i64 %66, 1
  %68 = inttoptr i64 %67 to ptr
  %.033 = select i1 %.not35, ptr %58, ptr %68
  %69 = tail call ptr @Cudd_bddAnd(ptr noundef %0, ptr noundef %.03444, ptr noundef %.033) #18
  tail call void @Cudd_Ref(ptr noundef %69) #18
  tail call void @Cudd_RecursiveDeref(ptr noundef %0, ptr noundef %.03444) #18
  %70 = add nuw nsw i32 %.03145, 1
  %.val38 = load i32, ptr %9, align 8, !tbaa !45
  %71 = icmp slt i32 %70, %.val38
  br i1 %71, label %.lr.ph.split, label %.critedge, !llvm.loop !84

.critedge:                                        ; preds = %.lr.ph.split, %.lr.ph.split.us, %5
  %.034.lcssa = phi ptr [ %8, %5 ], [ %41, %.lr.ph.split.us ], [ %69, %.lr.ph.split ]
  tail call void @Cudd_Deref(ptr noundef %.034.lcssa) #18
  store i64 %7, ptr %6, align 8, !tbaa !70
  ret ptr %.034.lcssa
}